target datalayout = "e-m:e-p270:32:32-p271:32:32-p272:64:64-i64:64-i128:128-f80:128-n8:16:32:64-S128"
target triple = "x86_64-pc-linux-gnu"

%struct.Header = type { ptr, i32, i32 }

@.str.51 = private unnamed_addr constant [35 x i8] c"invalid next option for option 'X'\00", align 1
@.str.52 = private unnamed_addr constant [41 x i8] c"format asks for alignment not power of 2\00", align 1

; Function Attrs: mustprogress uwtable
define internal noundef i32 @_ZL10getdetailsP6HeadermPPKcPiS4_(ptr noundef %0, i64 noundef %1, ptr noundef %2, ptr noundef %3, ptr noundef %4) #2 {
  %6 = alloca ptr, align 8
  %7 = alloca i64, align 8
  %8 = alloca ptr, align 8
  %9 = alloca ptr, align 8
  %10 = alloca ptr, align 8
  %11 = alloca i32, align 4
  %12 = alloca i32, align 4
  store ptr %0, ptr %6, align 8, !tbaa !113
  store i64 %1, ptr %7, align 8, !tbaa !22
  store ptr %2, ptr %8, align 8, !tbaa !117
  store ptr %3, ptr %9, align 8, !tbaa !100
  store ptr %4, ptr %10, align 8, !tbaa !100
  call void @llvm.lifetime.start.p0(i64 4, ptr %11) #13
  %13 = load ptr, ptr %6, align 8, !tbaa !113
  %14 = load ptr, ptr %8, align 8, !tbaa !117
  %15 = load ptr, ptr %9, align 8, !tbaa !100
  %16 = call noundef i32 @_ZL9getoptionP6HeaderPPKcPi(ptr noundef %13, ptr noundef %14, ptr noundef %15)
  store i32 %16, ptr %11, align 4, !tbaa !47
  call void @llvm.lifetime.start.p0(i64 4, ptr %12) #13
  %17 = load ptr, ptr %9, align 8, !tbaa !100
  %18 = load i32, ptr %17, align 4, !tbaa !24
  store i32 %18, ptr %12, align 4, !tbaa !24
  %19 = load i32, ptr %11, align 4, !tbaa !47
  %20 = icmp eq i32 %19, 7
  br i1 %20, label %21, label %40

21:                                               ; preds = %5
  %22 = load ptr, ptr %8, align 8, !tbaa !117
  %23 = load ptr, ptr %22, align 8, !tbaa !9
  %24 = load i8, ptr %23, align 1, !tbaa !26
  %25 = sext i8 %24 to i32
  %26 = icmp eq i32 %25, 0
  br i1 %26, label %35, label %27

27:                                               ; preds = %21
  %28 = load ptr, ptr %6, align 8, !tbaa !113
  %29 = load ptr, ptr %8, align 8, !tbaa !117
  %30 = call noundef i32 @_ZL9getoptionP6HeaderPPKcPi(ptr noundef %28, ptr noundef %29, ptr noundef %12)
  %31 = icmp eq i32 %30, 3
  br i1 %31, label %35, label %32

32:                                               ; preds = %27
  %33 = load i32, ptr %12, align 4, !tbaa !24
  %34 = icmp eq i32 %33, 0
  br i1 %34, label %35, label %39

35:                                               ; preds = %32, %27, %21
  %36 = load ptr, ptr %6, align 8, !tbaa !113
  %37 = getelementptr inbounds nuw %struct.Header, ptr %36, i32 0, i32 0
  %38 = load ptr, ptr %37, align 8, !tbaa !115
  call void @_Z14luaL_argerrorLP9lua_StateiPKc(ptr noundef %38, i32 noundef 1, ptr noundef @.str.51) #14
  unreachable

39:                                               ; preds = %32
  br label %40

40:                                               ; preds = %39, %5
  %41 = load i32, ptr %12, align 4, !tbaa !24
  %42 = icmp sle i32 %41, 1
  br i1 %42, label %46, label %43

43:                                               ; preds = %40
  %44 = load i32, ptr %11, align 4, !tbaa !47
  %45 = icmp eq i32 %44, 3
  br i1 %45, label %46, label %48

46:                                               ; preds = %43, %40
  %47 = load ptr, ptr %10, align 8, !tbaa !100
  store i32 0, ptr %47, align 4, !tbaa !24
  br label %81

48:                                               ; preds = %43
  %49 = load i32, ptr %12, align 4, !tbaa !24
  %50 = load ptr, ptr %6, align 8, !tbaa !113
  %51 = getelementptr inbounds nuw %struct.Header, ptr %50, i32 0, i32 2
  %52 = load i32, ptr %51, align 4, !tbaa !116
  %53 = icmp sgt i32 %49, %52
  br i1 %53, label %54, label %58

54:                                               ; preds = %48
  %55 = load ptr, ptr %6, align 8, !tbaa !113
  %56 = getelementptr inbounds nuw %struct.Header, ptr %55, i32 0, i32 2
  %57 = load i32, ptr %56, align 4, !tbaa !116
  store i32 %57, ptr %12, align 4, !tbaa !24
  br label %58

58:                                               ; preds = %54, %48
  %59 = load i32, ptr %12, align 4, !tbaa !24
  %60 = load i32, ptr %12, align 4, !tbaa !24
  %61 = sub nsw i32 %60, 1
  %62 = and i32 %59, %61
  %63 = icmp ne i32 %62, 0
  br i1 %63, label %64, label %68

64:                                               ; preds = %58
  %65 = load ptr, ptr %6, align 8, !tbaa !113
  %66 = getelementptr inbounds nuw %struct.Header, ptr %65, i32 0, i32 0
  %67 = load ptr, ptr %66, align 8, !tbaa !115
  call void @_Z14luaL_argerrorLP9lua_StateiPKc(ptr noundef %67, i32 noundef 1, ptr noundef @.str.52) #14
  unreachable

68:                                               ; preds = %58
  %69 = load i32, ptr %12, align 4, !tbaa !24
  %70 = load i64, ptr %7, align 8, !tbaa !22
  %71 = load i32, ptr %12, align 4, !tbaa !24
  %72 = sub nsw i32 %71, 1
  %73 = sext i32 %72 to i64
  %74 = and i64 %70, %73
  %75 = trunc i64 %74 to i32
  %76 = sub nsw i32 %69, %75
  %77 = load i32, ptr %12, align 4, !tbaa !24
  %78 = sub nsw i32 %77, 1
  %79 = and i32 %76, %78
  %80 = load ptr, ptr %10, align 8, !tbaa !100
  store i32 %79, ptr %80, align 4, !tbaa !24
  br label %81

81:                                               ; preds = %68, %46
  %82 = load i32, ptr %11, align 4, !tbaa !47
  call void @llvm.lifetime.end.p0(i64 4, ptr %12) #13
  call void @llvm.lifetime.end.p0(i64 4, ptr %11) #13
  ret i32 %82
}