; Function Attrs: mustprogress uwtable
define internal fastcc noundef range(i32 0, 9) i32 @_ZL10getdetailsP6HeadermPPKcPiS4_(ptr noundef nonnull captures(none) %0, i64 noundef %1, ptr noundef nonnull captures(none) %2, ptr noundef nonnull captures(none) initializes((0, 4)) %3, ptr noundef nonnull writeonly captures(none) %4) unnamed_addr #0 {
  %6 = alloca i32, align 4
  %7 = tail call fastcc noundef i32 @_ZL9getoptionP6HeaderPPKcPi(ptr noundef %0, ptr noundef %2, ptr noundef %3)
  call void @llvm.lifetime.start.p0(i64 4, ptr nonnull %6) #14
  %8 = load i32, ptr %3, align 4, !tbaa !43
  %9 = icmp eq i32 %7, 7
  br i1 %9, label %10, label %21

10:                                               ; preds = %5
  %11 = load ptr, ptr %2, align 8, !tbaa !49
  %12 = load i8, ptr %11, align 1, !tbaa !8
  %13 = icmp eq i8 %12, 0
  br i1 %13, label %19, label %14

14:                                               ; preds = %10
  %15 = call fastcc noundef i32 @_ZL9getoptionP6HeaderPPKcPi(ptr noundef %0, ptr noundef %2, ptr noundef %6)
  %16 = icmp eq i32 %15, 3
  %17 = load i32, ptr %6, align 4
  %18 = icmp eq i32 %17, 0
  %or.cond = select i1 %16, i1 true, i1 %18
  br i1 %or.cond, label %19, label %21

19:                                               ; preds = %14, %10
  %20 = load ptr, ptr %0, align 8, !tbaa !50
  tail call void @_Z14luaL_argerrorLP9lua_StateiPKc(ptr noundef %20, i32 noundef 1, ptr noundef nonnull @.str.51) #15
  unreachable

21:                                               ; preds = %14, %5
  %22 = phi i32 [ %17, %14 ], [ %8, %5 ]
  %23 = icmp slt i32 %22, 2
  %24 = icmp eq i32 %7, 3
  %or.cond3 = or i1 %24, %23
  br i1 %or.cond3, label %37, label %25

25:                                               ; preds = %21
  %26 = getelementptr inbounds nuw i8, ptr %0, i64 12
  %27 = load i32, ptr %26, align 4, !tbaa !53
  %spec.select = tail call i32 @llvm.smin.i32(i32 %22, i32 %27)
  %28 = tail call range(i32 0, 33) i32 @llvm.ctpop.i32(i32 %spec.select)
  %.not = icmp samesign ult i32 %28, 2
  br i1 %.not, label %31, label %29

29:                                               ; preds = %25
  %30 = load ptr, ptr %0, align 8, !tbaa !50
  tail call void @_Z14luaL_argerrorLP9lua_StateiPKc(ptr noundef %30, i32 noundef 1, ptr noundef nonnull @.str.52) #15
  unreachable

31:                                               ; preds = %25
  %32 = add nsw i32 %spec.select, -1
  %33 = trunc i64 %1 to i32
  %34 = and i32 %32, %33
  %35 = sub nsw i32 %spec.select, %34
  %36 = and i32 %35, %32
  br label %37

37:                                               ; preds = %21, %31
  %storemerge = phi i32 [ %36, %31 ], [ 0, %21 ]
  store i32 %storemerge, ptr %4, align 4, !tbaa !43
  call void @llvm.lifetime.end.p0(i64 4, ptr nonnull %6) #14
  ret i32 %7
}